; ModuleID = '37/945.c'
source_filename = "37/945.c"
target datalayout = "e-m:e-p270:32:32-p271:32:32-p272:64:64-i64:64-f80:128-n8:16:32:64-S128"
target triple = "x86_64-pc-linux-gnu"

@.str = private unnamed_addr constant [3 x i8] c"%d\00", align 1
@.str.1 = private unnamed_addr constant [3 x i8] c"%s\00", align 1
@.str.2 = private unnamed_addr constant [4 x i8] c"%c\0A\00", align 1
@.str.3 = private unnamed_addr constant [4 x i8] c"no\0A\00", align 1

; Function Attrs: noinline nounwind uwtable
define dso_local i32 @main(i32 %0, i8** %1) #0 {
  %3 = alloca i32, align 4
  %4 = alloca i32, align 4
  %5 = alloca i8**, align 8
  %6 = alloca [26 x i32], align 16
  %7 = alloca i32, align 4
  %8 = alloca i32, align 4
  %9 = alloca i32, align 4
  %10 = alloca i32, align 4
  %11 = alloca [10001 x i8], align 16
  %12 = alloca i8*, align 8
  store i32 0, i32* %3, align 4
  store i32 %0, i32* %4, align 4
  store i8** %1, i8*** %5, align 8
  store i32 0, i32* %9, align 4
  store i32 0, i32* %10, align 4
  %13 = call i32 (i8*, ...) @__isoc99_scanf(i8* getelementptr inbounds ([3 x i8], [3 x i8]* @.str, i64 0, i64 0), i32* %7)
  br label %14

14:                                               ; preds = %93, %2
  %15 = load i32, i32* %7, align 4
  %16 = icmp sgt i32 %15, 0
  br i1 %16, label %17, label %96

17:                                               ; preds = %14
  %18 = getelementptr inbounds [10001 x i8], [10001 x i8]* %11, i64 0, i64 0
  %19 = call i32 (i8*, ...) @__isoc99_scanf(i8* getelementptr inbounds ([3 x i8], [3 x i8]* @.str.1, i64 0, i64 0), i8* %18)
  store i32 0, i32* %8, align 4
  br label %20

20:                                               ; preds = %27, %17
  %21 = load i32, i32* %8, align 4
  %22 = icmp slt i32 %21, 26
  br i1 %22, label %23, label %30

23:                                               ; preds = %20
  %24 = load i32, i32* %8, align 4
  %25 = sext i32 %24 to i64
  %26 = getelementptr inbounds [26 x i32], [26 x i32]* %6, i64 0, i64 %25
  store i32 0, i32* %26, align 4
  br label %27

27:                                               ; preds = %23
  %28 = load i32, i32* %8, align 4
  %29 = add nsw i32 %28, 1
  store i32 %29, i32* %8, align 4
  br label %20

30:                                               ; preds = %20
  %31 = getelementptr inbounds [10001 x i8], [10001 x i8]* %11, i64 0, i64 0
  store i8* %31, i8** %12, align 8
  br label %32

32:                                               ; preds = %37, %30
  %33 = load i8*, i8** %12, align 8
  %34 = load i8, i8* %33, align 1
  %35 = sext i8 %34 to i32
  %36 = icmp ne i32 %35, 0
  br i1 %36, label %37, label %48

37:                                               ; preds = %32
  %38 = load i8*, i8** %12, align 8
  %39 = load i8, i8* %38, align 1
  %40 = sext i8 %39 to i32
  %41 = sub nsw i32 %40, 97
  %42 = sext i32 %41 to i64
  %43 = getelementptr inbounds [26 x i32], [26 x i32]* %6, i64 0, i64 %42
  %44 = load i32, i32* %43, align 4
  %45 = add nsw i32 %44, 1
  store i32 %45, i32* %43, align 4
  %46 = load i8*, i8** %12, align 8
  %47 = getelementptr inbounds i8, i8* %46, i32 1
  store i8* %47, i8** %12, align 8
  br label %32

48:                                               ; preds = %32
  store i32 0, i32* %9, align 4
  store i32 0, i32* %10, align 4
  %49 = getelementptr inbounds [10001 x i8], [10001 x i8]* %11, i64 0, i64 0
  store i8* %49, i8** %12, align 8
  br label %50

50:                                               ; preds = %85, %48
  %51 = load i8*, i8** %12, align 8
  %52 = load i8, i8* %51, align 1
  %53 = sext i8 %52 to i32
  %54 = icmp ne i32 %53, 0
  br i1 %54, label %55, label %88

55:                                               ; preds = %50
  store i32 0, i32* %8, align 4
  br label %56

56:                                               ; preds = %77, %55
  %57 = load i32, i32* %8, align 4
  %58 = icmp slt i32 %57, 26
  br i1 %58, label %59, label %80

59:                                               ; preds = %56
  %60 = load i32, i32* %8, align 4
  %61 = sext i32 %60 to i64
  %62 = getelementptr inbounds [26 x i32], [26 x i32]* %6, i64 0, i64 %61
  %63 = load i32, i32* %62, align 4
  %64 = icmp eq i32 %63, 1
  br i1 %64, label %65, label %76

65:                                               ; preds = %59
  %66 = load i8*, i8** %12, align 8
  %67 = load i8, i8* %66, align 1
  %68 = sext i8 %67 to i32
  %69 = sub nsw i32 %68, 97
  %70 = load i32, i32* %8, align 4
  %71 = icmp eq i32 %69, %70
  br i1 %71, label %72, label %76

72:                                               ; preds = %65
  store i32 1, i32* %9, align 4
  store i32 1, i32* %10, align 4
  %73 = load i32, i32* %8, align 4
  %74 = add nsw i32 97, %73
  %75 = call i32 (i8*, ...) @printf(i8* getelementptr inbounds ([4 x i8], [4 x i8]* @.str.2, i64 0, i64 0), i32 %74)
  br label %80

76:                                               ; preds = %65, %59
  br label %77

77:                                               ; preds = %76
  %78 = load i32, i32* %8, align 4
  %79 = add nsw i32 %78, 1
  store i32 %79, i32* %8, align 4
  br label %56

80:                                               ; preds = %72, %56
  %81 = load i32, i32* %10, align 4
  %82 = icmp eq i32 1, %81
  br i1 %82, label %83, label %84

83:                                               ; preds = %80
  br label %88

84:                                               ; preds = %80
  br label %85

85:                                               ; preds = %84
  %86 = load i8*, i8** %12, align 8
  %87 = getelementptr inbounds i8, i8* %86, i32 1
  store i8* %87, i8** %12, align 8
  br label %50

88:                                               ; preds = %83, %50
  %89 = load i32, i32* %9, align 4
  %90 = icmp eq i32 0, %89
  br i1 %90, label %91, label %93

91:                                               ; preds = %88
  %92 = call i32 (i8*, ...) @printf(i8* getelementptr inbounds ([4 x i8], [4 x i8]* @.str.3, i64 0, i64 0))
  br label %93

93:                                               ; preds = %91, %88
  %94 = load i32, i32* %7, align 4
  %95 = add nsw i32 %94, -1
  store i32 %95, i32* %7, align 4
  br label %14

96:                                               ; preds = %14
  ret i32 0
}

declare dso_local i32 @__isoc99_scanf(i8*, ...) #1

declare dso_local i32 @printf(i8*, ...) #1


!llvm.module.flags = !{!0}
!llvm.ident = !{!1}

!0 = !{i32 1, !"wchar_size", i32 4}
!1 = !{!"clang version 10.0.0-4ubuntu1 "}
